; Function Attrs: mustprogress nofree norecurse nosync nounwind willreturn memory(read, inaccessiblemem: none) uwtable
define dso_local noundef ptr @_ZN8V3PreLex13currentBufferEv(ptr noundef nonnull readnone align 8 captures(none) dereferenceable(264) %0) local_unnamed_addr #24 align 2 {
  %2 = load ptr, ptr @_ZL15yy_buffer_stack, align 8, !tbaa !13
  %.not = icmp eq ptr %2, null
  br i1 %.not, label %7, label %3

3:                                                ; preds = %1
  %4 = load i64, ptr @_ZL19yy_buffer_stack_top, align 8, !tbaa !16
  %5 = getelementptr inbounds nuw ptr, ptr %2, i64 %4
  %6 = load ptr, ptr %5, align 8, !tbaa !18
  br label %7

7:                                                ; preds = %1, %3
  %8 = phi ptr [ %6, %3 ], [ null, %1 ]
  ret ptr %8
}